; Function Attrs: mustprogress uwtable
define hidden void @_ZN4cvc58internal6theory7builtin28ApplyIndexedSymbolicTypeRule11computeTypeEPNS0_11NodeManagerENS0_12NodeTemplateILb0EEEbPSo(ptr dead_on_unwind noalias writable sret(%"class.cvc5::internal::TypeNode") align 8 %0, ptr noundef %1, ptr noundef readonly captures(none) %2, i1 noundef zeroext %3, ptr noundef readnone captures(none) %4) local_unnamed_addr #3 align 2 personality ptr @__gxx_personality_v0 {
  %6 = alloca %"class.cvc5::internal::NodeTemplate.26", align 8
  %7 = alloca %"class.cvc5::internal::NodeTemplate.26", align 8
  call void @llvm.lifetime.start.p0(i64 8, ptr nonnull %6) #19
  call void @llvm.lifetime.start.p0(i64 8, ptr nonnull %7) #19
  %8 = load ptr, ptr %2, align 8, !tbaa !3
  store ptr %8, ptr %7, align 8, !tbaa !126
  %9 = load i64, ptr %8, align 8
  %10 = lshr i64 %9, 40
  %11 = trunc nuw nsw i64 %10 to i32
  %12 = and i32 %11, 1048575
  %13 = icmp samesign ult i32 %12, 1048574
  br i1 %13, label %14, label %19, !prof !54

14:                                               ; preds = %5
  %15 = add i64 %9, 1099511627776
  %16 = and i64 %15, 1152920405095219200
  %17 = and i64 %9, -1152920405095219201
  %18 = or disjoint i64 %16, %17
  store i64 %18, ptr %8, align 8
  br label %_ZN4cvc58internal12NodeTemplateILb1EEC2ERKNS1_ILb0EEE.exit

19:                                               ; preds = %5
  %20 = icmp eq i32 %12, 1048574
  br i1 %20, label %21, label %_ZN4cvc58internal12NodeTemplateILb1EEC2ERKNS1_ILb0EEE.exit, !prof !55

21:                                               ; preds = %19
  %22 = or i64 %9, 1152920405095219200
  store i64 %22, ptr %8, align 8
  tail call void @_ZN4cvc58internal4expr9NodeValue20markRefCountMaxedOutEv(ptr noundef nonnull align 8 dereferenceable(24) %8)
  br label %_ZN4cvc58internal12NodeTemplateILb1EEC2ERKNS1_ILb0EEE.exit

_ZN4cvc58internal12NodeTemplateILb1EEC2ERKNS1_ILb0EEE.exit: ; preds = %14, %19, %21
  invoke void @_ZN4cvc58internal9GenericOp14getConcreteAppERKNS0_12NodeTemplateILb1EEE(ptr dead_on_unwind nonnull writable sret(%"class.cvc5::internal::NodeTemplate.26") align 8 %6, ptr noundef nonnull align 8 dereferenceable(8) %7)
          to label %23 unwind label %42

23:                                               ; preds = %_ZN4cvc58internal12NodeTemplateILb1EEC2ERKNS1_ILb0EEE.exit
  %24 = load ptr, ptr %7, align 8, !tbaa !126
  %25 = load i64, ptr %24, align 8
  %26 = and i64 %25, 1152920405095219200
  %.not.i.i = icmp eq i64 %26, 1152920405095219200
  br i1 %.not.i.i, label %37, label %27, !prof !55

27:                                               ; preds = %23
  %28 = add i64 %25, 1152920405095219200
  %29 = and i64 %28, 1152920405095219200
  %30 = and i64 %25, -1152920405095219201
  %31 = or disjoint i64 %29, %30
  store i64 %31, ptr %24, align 8
  %32 = icmp eq i64 %29, 0
  br i1 %32, label %33, label %37, !prof !55

33:                                               ; preds = %27
  invoke void @_ZN4cvc58internal4expr9NodeValue15markForDeletionEv(ptr noundef nonnull align 8 dereferenceable(24) %24)
          to label %37 unwind label %34

34:                                               ; preds = %33
  %35 = landingpad { ptr, i32 }
          catch ptr null
  %36 = extractvalue { ptr, i32 } %35, 0
  call void @__clang_call_terminate(ptr %36) #21
  unreachable

37:                                               ; preds = %33, %27, %23
  call void @llvm.lifetime.end.p0(i64 8, ptr nonnull %7) #19
  %38 = load ptr, ptr %6, align 8, !tbaa !126
  %39 = load ptr, ptr %2, align 8, !tbaa !3
  %40 = icmp eq ptr %38, %39
  br i1 %40, label %41, label %46

41:                                               ; preds = %37
  invoke void @_ZN4cvc58internal11NodeManager14mkAbstractTypeENS0_4kind6Kind_tE(ptr dead_on_unwind writable sret(%"class.cvc5::internal::TypeNode") align 8 %0, ptr noundef nonnull align 8 dereferenceable(3560) %1, i32 noundef 15)
          to label %47 unwind label %44

42:                                               ; preds = %_ZN4cvc58internal12NodeTemplateILb1EEC2ERKNS1_ILb0EEE.exit
  %43 = landingpad { ptr, i32 }
          cleanup
  call void @_ZN4cvc58internal12NodeTemplateILb1EED2Ev(ptr noundef nonnull align 8 dereferenceable(8) %7) #19
  call void @llvm.lifetime.end.p0(i64 8, ptr nonnull %7) #19
  br label %61

44:                                               ; preds = %46, %41
  %45 = landingpad { ptr, i32 }
          cleanup
  call void @_ZN4cvc58internal12NodeTemplateILb1EED2Ev(ptr noundef nonnull align 8 dereferenceable(8) %6) #19
  br label %61

46:                                               ; preds = %37
  invoke void @_ZNK4cvc58internal12NodeTemplateILb1EE7getTypeEb(ptr dead_on_unwind writable sret(%"class.cvc5::internal::TypeNode") align 8 %0, ptr noundef nonnull align 8 dereferenceable(8) %6, i1 noundef zeroext false)
          to label %47 unwind label %44

47:                                               ; preds = %46, %41
  %48 = load ptr, ptr %6, align 8, !tbaa !126
  %49 = load i64, ptr %48, align 8
  %50 = and i64 %49, 1152920405095219200
  %.not.i.i4 = icmp eq i64 %50, 1152920405095219200
  br i1 %.not.i.i4, label %_ZN4cvc58internal12NodeTemplateILb1EED2Ev.exit5, label %51, !prof !55

51:                                               ; preds = %47
  %52 = add i64 %49, 1152920405095219200
  %53 = and i64 %52, 1152920405095219200
  %54 = and i64 %49, -1152920405095219201
  %55 = or disjoint i64 %53, %54
  store i64 %55, ptr %48, align 8
  %56 = icmp eq i64 %53, 0
  br i1 %56, label %57, label %_ZN4cvc58internal12NodeTemplateILb1EED2Ev.exit5, !prof !55

57:                                               ; preds = %51
  invoke void @_ZN4cvc58internal4expr9NodeValue15markForDeletionEv(ptr noundef nonnull align 8 dereferenceable(24) %48)
          to label %_ZN4cvc58internal12NodeTemplateILb1EED2Ev.exit5 unwind label %58

58:                                               ; preds = %57
  %59 = landingpad { ptr, i32 }
          catch ptr null
  %60 = extractvalue { ptr, i32 } %59, 0
  call void @__clang_call_terminate(ptr %60) #21
  unreachable

_ZN4cvc58internal12NodeTemplateILb1EED2Ev.exit5:  ; preds = %47, %51, %57
  call void @llvm.lifetime.end.p0(i64 8, ptr nonnull %6) #19
  ret void

61:                                               ; preds = %44, %42
  %.pn = phi { ptr, i32 } [ %45, %44 ], [ %43, %42 ]
  call void @llvm.lifetime.end.p0(i64 8, ptr nonnull %6) #19
  resume { ptr, i32 } %.pn
}